; ModuleID = '31/1823.c'
source_filename = "31/1823.c"
target datalayout = "e-m:e-p270:32:32-p271:32:32-p272:64:64-i64:64-f80:128-n8:16:32:64-S128"
target triple = "x86_64-pc-linux-gnu"

%struct.stu = type { [100 x i8], %struct.stu*, %struct.stu* }

@.str = private unnamed_addr constant [2 x i8] c"\0A\00", align 1
@.str.1 = private unnamed_addr constant [4 x i8] c"end\00", align 1

; Function Attrs: noinline nounwind uwtable
define dso_local void @main() #0 {
  %1 = alloca %struct.stu*, align 8
  %2 = alloca %struct.stu*, align 8
  %3 = alloca %struct.stu*, align 8
  %4 = alloca %struct.stu*, align 8
  %5 = alloca i32, align 4
  %6 = alloca i32, align 4
  %7 = alloca i32, align 4
  %8 = call noalias i8* @malloc(i64 120) #4
  %9 = bitcast i8* %8 to %struct.stu*
  store %struct.stu* %9, %struct.stu** %2, align 8
  %10 = load %struct.stu*, %struct.stu** %2, align 8
  store %struct.stu* %10, %struct.stu** %1, align 8
  %11 = load %struct.stu*, %struct.stu** %2, align 8
  store %struct.stu* %11, %struct.stu** %3, align 8
  %12 = load %struct.stu*, %struct.stu** %2, align 8
  %13 = getelementptr inbounds %struct.stu, %struct.stu* %12, i32 0, i32 0
  %14 = getelementptr inbounds [100 x i8], [100 x i8]* %13, i64 0, i64 0
  %15 = call i32 (i8*, ...) bitcast (i32 (...)* @gets to i32 (i8*, ...)*)(i8* %14)
  %16 = load %struct.stu*, %struct.stu** %2, align 8
  %17 = getelementptr inbounds %struct.stu, %struct.stu* %16, i32 0, i32 2
  store %struct.stu* null, %struct.stu** %17, align 8
  %18 = call i32 (i8*, ...) @__isoc99_scanf(i8* getelementptr inbounds ([2 x i8], [2 x i8]* @.str, i64 0, i64 0))
  br label %19

19:                                               ; preds = %39, %0
  %20 = call noalias i8* @malloc(i64 120) #4
  %21 = bitcast i8* %20 to %struct.stu*
  store %struct.stu* %21, %struct.stu** %2, align 8
  %22 = load %struct.stu*, %struct.stu** %2, align 8
  %23 = getelementptr inbounds %struct.stu, %struct.stu* %22, i32 0, i32 0
  %24 = getelementptr inbounds [100 x i8], [100 x i8]* %23, i64 0, i64 0
  %25 = call i32 (i8*, ...) bitcast (i32 (...)* @gets to i32 (i8*, ...)*)(i8* %24)
  %26 = call i32 (i8*, ...) @__isoc99_scanf(i8* getelementptr inbounds ([2 x i8], [2 x i8]* @.str, i64 0, i64 0))
  %27 = load %struct.stu*, %struct.stu** %2, align 8
  %28 = getelementptr inbounds %struct.stu, %struct.stu* %27, i32 0, i32 0
  %29 = getelementptr inbounds [100 x i8], [100 x i8]* %28, i64 0, i64 0
  %30 = call i32 @strcmp(i8* %29, i8* getelementptr inbounds ([4 x i8], [4 x i8]* @.str.1, i64 0, i64 0)) #5
  %31 = icmp eq i32 %30, 0
  br i1 %31, label %32, label %34

32:                                               ; preds = %19
  %33 = load %struct.stu*, %struct.stu** %3, align 8
  store %struct.stu* %33, %struct.stu** %4, align 8
  br label %40

34:                                               ; preds = %19
  %35 = load %struct.stu*, %struct.stu** %3, align 8
  %36 = load %struct.stu*, %struct.stu** %2, align 8
  %37 = getelementptr inbounds %struct.stu, %struct.stu* %36, i32 0, i32 2
  store %struct.stu* %35, %struct.stu** %37, align 8
  %38 = load %struct.stu*, %struct.stu** %2, align 8
  store %struct.stu* %38, %struct.stu** %3, align 8
  br label %39

39:                                               ; preds = %34
  br label %19

40:                                               ; preds = %32
  br label %41

41:                                               ; preds = %49, %40
  %42 = load %struct.stu*, %struct.stu** %4, align 8
  %43 = icmp ne %struct.stu* %42, null
  br i1 %43, label %44, label %53

44:                                               ; preds = %41
  %45 = load %struct.stu*, %struct.stu** %4, align 8
  %46 = getelementptr inbounds %struct.stu, %struct.stu* %45, i32 0, i32 0
  %47 = getelementptr inbounds [100 x i8], [100 x i8]* %46, i64 0, i64 0
  %48 = call i32 @puts(i8* %47)
  br label %49

49:                                               ; preds = %44
  %50 = load %struct.stu*, %struct.stu** %4, align 8
  %51 = getelementptr inbounds %struct.stu, %struct.stu* %50, i32 0, i32 2
  %52 = load %struct.stu*, %struct.stu** %51, align 8
  store %struct.stu* %52, %struct.stu** %4, align 8
  br label %41

53:                                               ; preds = %41
  ret void
}

; Function Attrs: nounwind
declare dso_local noalias i8* @malloc(i64) #1

declare dso_local i32 @gets(...) #2

declare dso_local i32 @__isoc99_scanf(i8*, ...) #2

; Function Attrs: nounwind readonly
declare dso_local i32 @strcmp(i8*, i8*) #3

declare dso_local i32 @puts(i8*) #2


!llvm.module.flags = !{!0}
!llvm.ident = !{!1}

!0 = !{i32 1, !"wchar_size", i32 4}
!1 = !{!"clang version 10.0.0-4ubuntu1 "}
