; ModuleID = 'source-C-CXX/30/1823.c'
source_filename = "source-C-CXX/30/1823.c"
target datalayout = "e-m:e-p270:32:32-p271:32:32-p272:64:64-i64:64-f80:128-n8:16:32:64-S128"
target triple = "x86_64-pc-linux-gnu"

%struct.stu = type { [100 x i8], %struct.stu*, %struct.stu* }

@.str = private unnamed_addr constant [2 x i8] c"\0A\00", align 1
@.str.1 = private unnamed_addr constant [4 x i8] c"end\00", align 1

; Function Attrs: nounwind sspstrong uwtable
define dso_local void @main() local_unnamed_addr #0 {
  %1 = tail call noalias align 16 dereferenceable_or_null(120) i8* @malloc(i64 120) #5
  %2 = bitcast i8* %1 to %struct.stu*
  %3 = getelementptr inbounds %struct.stu, %struct.stu* %2, i64 0, i32 0, i64 0
  %4 = tail call i32 (i8*, ...) bitcast (i32 (...)* @gets to i32 (i8*, ...)*)(i8* %3) #5
  %5 = getelementptr inbounds %struct.stu, %struct.stu* %2, i64 0, i32 2
  store %struct.stu* null, %struct.stu** %5, align 16, !tbaa !5
  %6 = tail call i32 (i8*, ...) @__isoc99_scanf(i8* getelementptr inbounds ([2 x i8], [2 x i8]* @.str, i64 0, i64 0))
  %7 = tail call noalias align 16 dereferenceable_or_null(120) i8* @malloc(i64 120) #5
  %8 = bitcast i8* %7 to %struct.stu*
  %9 = getelementptr inbounds %struct.stu, %struct.stu* %8, i64 0, i32 0, i64 0
  %10 = tail call i32 (i8*, ...) bitcast (i32 (...)* @gets to i32 (i8*, ...)*)(i8* %9) #5
  %11 = tail call i32 (i8*, ...) @__isoc99_scanf(i8* getelementptr inbounds ([2 x i8], [2 x i8]* @.str, i64 0, i64 0))
  %12 = tail call i32 @strcmp(i8* noundef nonnull dereferenceable(1) %9, i8* noundef nonnull dereferenceable(4) getelementptr inbounds ([4 x i8], [4 x i8]* @.str.1, i64 0, i64 0)) #6
  %13 = icmp eq i32 %12, 0
  br i1 %13, label %25, label %14

14:                                               ; preds = %0, %14
  %15 = phi %struct.stu* [ %19, %14 ], [ %8, %0 ]
  %16 = phi %struct.stu* [ %15, %14 ], [ %2, %0 ]
  %17 = getelementptr inbounds %struct.stu, %struct.stu* %15, i64 0, i32 2
  store %struct.stu* %16, %struct.stu** %17, align 16, !tbaa !5
  %18 = tail call noalias align 16 dereferenceable_or_null(120) i8* @malloc(i64 120) #5
  %19 = bitcast i8* %18 to %struct.stu*
  %20 = getelementptr inbounds %struct.stu, %struct.stu* %19, i64 0, i32 0, i64 0
  %21 = tail call i32 (i8*, ...) bitcast (i32 (...)* @gets to i32 (i8*, ...)*)(i8* %20) #5
  %22 = tail call i32 (i8*, ...) @__isoc99_scanf(i8* getelementptr inbounds ([2 x i8], [2 x i8]* @.str, i64 0, i64 0))
  %23 = tail call i32 @strcmp(i8* noundef nonnull dereferenceable(1) %20, i8* noundef nonnull dereferenceable(4) getelementptr inbounds ([4 x i8], [4 x i8]* @.str.1, i64 0, i64 0)) #6
  %24 = icmp eq i32 %23, 0
  br i1 %24, label %25, label %14

25:                                               ; preds = %14, %0
  %26 = phi %struct.stu* [ %2, %0 ], [ %15, %14 ]
  br label %27

27:                                               ; preds = %25, %27
  %28 = phi %struct.stu* [ %32, %27 ], [ %26, %25 ]
  %29 = getelementptr inbounds %struct.stu, %struct.stu* %28, i64 0, i32 0, i64 0
  %30 = tail call i32 @puts(i8* nonnull %29)
  %31 = getelementptr inbounds %struct.stu, %struct.stu* %28, i64 0, i32 2
  %32 = load %struct.stu*, %struct.stu** %31, align 8, !tbaa !5
  %33 = icmp eq %struct.stu* %32, null
  br i1 %33, label %34, label %27, !llvm.loop !10

34:                                               ; preds = %27
  ret void
}

; Function Attrs: inaccessiblememonly mustprogress nofree nounwind willreturn
declare noalias noundef align 16 i8* @malloc(i64 noundef) local_unnamed_addr #1

declare i32 @gets(...) local_unnamed_addr #2

; Function Attrs: nofree nounwind
declare noundef i32 @__isoc99_scanf(i8* nocapture noundef readonly, ...) local_unnamed_addr #3

; Function Attrs: argmemonly mustprogress nofree nounwind readonly willreturn
declare i32 @strcmp(i8* nocapture, i8* nocapture) local_unnamed_addr #4

; Function Attrs: nofree nounwind
declare noundef i32 @puts(i8* nocapture noundef readonly) local_unnamed_addr #3


!llvm.module.flags = !{!0, !1, !2, !3}
!llvm.ident = !{!4}

!0 = !{i32 1, !"wchar_size", i32 4}
!1 = !{i32 7, !"PIC Level", i32 2}
!2 = !{i32 7, !"PIE Level", i32 2}
!3 = !{i32 7, !"uwtable", i32 1}
!4 = !{!"clang version 13.0.0"}
!5 = !{!6, !9, i64 112}
!6 = !{!"stu", !7, i64 0, !9, i64 104, !9, i64 112}
!7 = !{!"omnipotent char", !8, i64 0}
!8 = !{!"Simple C/C++ TBAA"}
!9 = !{!"any pointer", !7, i64 0}
!10 = distinct !{!10, !11}
!11 = !{!"llvm.loop.mustprogress"}
